; Function Attrs: mustprogress nofree norecurse nosync nounwind willreturn memory(read, inaccessiblemem: none) uwtable
define dso_local noundef ptr @_ZNK5clang8comments13CommandTraits24getRegisteredCommandInfoEj(ptr nocapture noundef nonnull readonly align 8 dereferenceable(64) %0, i32 noundef %1) local_unnamed_addr #3 align 2 {
  %3 = getelementptr inbounds nuw i8, ptr %0, i64 16
  %4 = zext i32 %1 to i64
  %5 = load ptr, ptr %3, align 8
  %6 = getelementptr ptr, ptr %5, i64 %4
  %7 = getelementptr i8, ptr %6, i64 -1592
  %8 = load ptr, ptr %7, align 8
  ret ptr %8
}